target datalayout = "e-m:e-p270:32:32-p271:32:32-p272:64:64-i64:64-i128:128-f80:128-n8:16:32:64-S128"
target triple = "x86_64-pc-linux-gnu"

%struct.IncludedGC = type { ptr, i32, ptr, ptr }

@_ZL11IncludedGCs = internal global [6 x %struct.IncludedGC] zeroinitializer, align 16

; Function Attrs: mustprogress nounwind uwtable
define hidden noundef zeroext i1 @_ZN8GCConfig14is_gc_selectedEN13CollectedHeap4NameE(i32 noundef %0) #1 align 2 {
  %2 = alloca i1, align 1
  %3 = alloca i32, align 4
  %4 = alloca ptr, align 8
  store i32 %0, ptr %3, align 4
  store ptr @_ZL11IncludedGCs, ptr %4, align 8
  br label %5

5:                                                ; preds = %22, %1
  %6 = load ptr, ptr %4, align 8
  %7 = icmp ult ptr %6, getelementptr inbounds ([6 x %struct.IncludedGC], ptr @_ZL11IncludedGCs, i64 0, i64 6)
  br i1 %7, label %8, label %25

8:                                                ; preds = %5
  %9 = load ptr, ptr %4, align 8
  %10 = getelementptr inbounds %struct.IncludedGC, ptr %9, i32 0, i32 1
  %11 = load i32, ptr %10, align 8
  %12 = load i32, ptr %3, align 4
  %13 = icmp eq i32 %11, %12
  br i1 %13, label %14, label %21

14:                                               ; preds = %8
  %15 = load ptr, ptr %4, align 8
  %16 = getelementptr inbounds %struct.IncludedGC, ptr %15, i32 0, i32 0
  %17 = load ptr, ptr %16, align 8
  %18 = load i8, ptr %17, align 1
  %19 = trunc i8 %18 to i1
  br i1 %19, label %20, label %21

20:                                               ; preds = %14
  store i1 true, ptr %2, align 1
  br label %26

21:                                               ; preds = %14, %8
  br label %22

22:                                               ; preds = %21
  %23 = load ptr, ptr %4, align 8
  %24 = getelementptr inbounds %struct.IncludedGC, ptr %23, i32 1
  store ptr %24, ptr %4, align 8
  br label %5, !llvm.loop !11

25:                                               ; preds = %5
  store i1 false, ptr %2, align 1
  br label %26

26:                                               ; preds = %25, %20
  %27 = load i1, ptr %2, align 1
  ret i1 %27
}