; Function Attrs: mustprogress nofree norecurse nosync nounwind willreturn memory(read, inaccessiblemem: none) uwtable
define hidden noundef zeroext i1 @_ZN8GCConfig14is_gc_selectedEN13CollectedHeap4NameE(i32 noundef %0) local_unnamed_addr #3 align 2 {
  br label %2

2:                                                ; preds = %1, %10
  %.0.idx6 = phi i64 [ 0, %1 ], [ %.0.add, %10 ]
  %.0.ptr7 = getelementptr inbounds i8, ptr @_ZL11IncludedGCs, i64 %.0.idx6
  %3 = getelementptr inbounds i8, ptr %.0.ptr7, i64 8
  %4 = load i32, ptr %3, align 8
  %5 = icmp eq i32 %4, %0
  br i1 %5, label %6, label %10

6:                                                ; preds = %2
  %7 = load ptr, ptr %.0.ptr7, align 16
  %8 = load i8, ptr %7, align 1
  %9 = trunc i8 %8 to i1
  br i1 %9, label %12, label %10

10:                                               ; preds = %2, %6
  %.0.add = add nuw nsw i64 %.0.idx6, 32
  %11 = icmp ult i64 %.0.idx6, 160
  br i1 %11, label %2, label %12, !llvm.loop !11

12:                                               ; preds = %10, %6
  %.lcssa = phi i1 [ false, %10 ], [ true, %6 ]
  ret i1 %.lcssa
}